target datalayout = "e-m:e-p270:32:32-p271:32:32-p272:64:64-i64:64-i128:128-f80:128-n8:16:32:64-S128"
target triple = "x86_64-pc-linux-gnu"

%"class.llvm::ArrayRef" = type { ptr, i64 }
%"struct.llvm::coro::LowererBase" = type { ptr, ptr, ptr, ptr, ptr }
%"class.llvm::Module" = type <{ ptr, %"class.llvm::SymbolTableList", %"class.llvm::SymbolTableList.0", %"class.llvm::SymbolTableList.9", %"class.llvm::SymbolTableList.18", %"class.llvm::iplist", %"class.std::__cxx11::basic_string", %"class.std::unique_ptr", %"class.llvm::StringMap", %"class.std::unique_ptr.36", %"class.std::unique_ptr.44", %"class.std::__cxx11::basic_string", %"class.std::__cxx11::basic_string", %"class.std::__cxx11::basic_string", %"class.llvm::StringMap.52", %"class.llvm::DataLayout", %"class.llvm::StringMap.73", %"class.llvm::DenseMap", ptr, i8, [7 x i8] }>
%"class.llvm::SymbolTableList" = type { %"class.llvm::iplist_impl" }
%"class.llvm::iplist_impl" = type { %"class.llvm::simple_ilist" }
%"class.llvm::simple_ilist" = type { %"class.llvm::ilist_sentinel" }
%"class.llvm::ilist_sentinel" = type { %"class.llvm::ilist_node_impl" }
%"class.llvm::ilist_node_impl" = type { %"class.llvm::ilist_node_base" }
%"class.llvm::ilist_node_base" = type { %"class.llvm::ilist_detail::node_base_prevnext" }
%"class.llvm::ilist_detail::node_base_prevnext" = type { ptr, ptr }
%"class.llvm::SymbolTableList.0" = type { %"class.llvm::iplist_impl.1" }
%"class.llvm::iplist_impl.1" = type { %"class.llvm::simple_ilist.4" }
%"class.llvm::simple_ilist.4" = type { %"class.llvm::ilist_sentinel.6" }
%"class.llvm::ilist_sentinel.6" = type { %"class.llvm::ilist_node_impl.7" }
%"class.llvm::ilist_node_impl.7" = type { %"class.llvm::ilist_node_base" }
%"class.llvm::SymbolTableList.9" = type { %"class.llvm::iplist_impl.10" }
%"class.llvm::iplist_impl.10" = type { %"class.llvm::simple_ilist.13" }
%"class.llvm::simple_ilist.13" = type { %"class.llvm::ilist_sentinel.15" }
%"class.llvm::ilist_sentinel.15" = type { %"class.llvm::ilist_node_impl.16" }
%"class.llvm::ilist_node_impl.16" = type { %"class.llvm::ilist_node_base" }
%"class.llvm::SymbolTableList.18" = type { %"class.llvm::iplist_impl.19" }
%"class.llvm::iplist_impl.19" = type { %"class.llvm::simple_ilist.22" }
%"class.llvm::simple_ilist.22" = type { %"class.llvm::ilist_sentinel.24" }
%"class.llvm::ilist_sentinel.24" = type { %"class.llvm::ilist_node_impl.25" }
%"class.llvm::ilist_node_impl.25" = type { %"class.llvm::ilist_node_base" }
%"class.llvm::iplist" = type { %"class.llvm::iplist_impl.27" }
%"class.llvm::iplist_impl.27" = type { %"class.llvm::simple_ilist.29" }
%"class.llvm::simple_ilist.29" = type { %"class.llvm::ilist_sentinel.31" }
%"class.llvm::ilist_sentinel.31" = type { %"class.llvm::ilist_node_impl.32" }
%"class.llvm::ilist_node_impl.32" = type { %"class.llvm::ilist_node_base" }
%"class.std::unique_ptr" = type { %"struct.std::__uniq_ptr_data" }
%"struct.std::__uniq_ptr_data" = type { %"class.std::__uniq_ptr_impl" }
%"class.std::__uniq_ptr_impl" = type { %"class.std::tuple" }
%"class.std::tuple" = type { %"struct.std::_Tuple_impl" }
%"struct.std::_Tuple_impl" = type { %"struct.std::_Head_base.35" }
%"struct.std::_Head_base.35" = type { ptr }
%"class.llvm::StringMap" = type { %"class.llvm::StringMapImpl" }
%"class.llvm::StringMapImpl" = type { ptr, i32, i32, i32, i32 }
%"class.std::unique_ptr.36" = type { %"struct.std::__uniq_ptr_data.37" }
%"struct.std::__uniq_ptr_data.37" = type { %"class.std::__uniq_ptr_impl.38" }
%"class.std::__uniq_ptr_impl.38" = type { %"class.std::tuple.39" }
%"class.std::tuple.39" = type { %"struct.std::_Tuple_impl.40" }
%"struct.std::_Tuple_impl.40" = type { %"struct.std::_Head_base.43" }
%"struct.std::_Head_base.43" = type { ptr }
%"class.std::unique_ptr.44" = type { %"struct.std::__uniq_ptr_data.45" }
%"struct.std::__uniq_ptr_data.45" = type { %"class.std::__uniq_ptr_impl.46" }
%"class.std::__uniq_ptr_impl.46" = type { %"class.std::tuple.47" }
%"class.std::tuple.47" = type { %"struct.std::_Tuple_impl.48" }
%"struct.std::_Tuple_impl.48" = type { %"struct.std::_Head_base.51" }
%"struct.std::_Head_base.51" = type { ptr }
%"class.std::__cxx11::basic_string" = type { %"struct.std::__cxx11::basic_string<char>::_Alloc_hider", i64, %union.anon }
%"struct.std::__cxx11::basic_string<char>::_Alloc_hider" = type { ptr }
%union.anon = type { i64, [8 x i8] }
%"class.llvm::StringMap.52" = type { %"class.llvm::StringMapImpl" }
%"class.llvm::DataLayout" = type { i8, i32, i32, i32, %"struct.llvm::MaybeAlign", %"struct.llvm::MaybeAlign", i32, i32, %"class.llvm::SmallVector", %"class.llvm::SmallVector.53", %"class.llvm::SmallVector.59", %"class.llvm::SmallVector.61", %"class.llvm::SmallVector.63", %"class.std::__cxx11::basic_string", %"struct.llvm::Align", %"struct.llvm::Align", ptr, %"class.llvm::SmallVector.68" }
%"struct.llvm::MaybeAlign" = type { %"class.std::optional" }
%"class.std::optional" = type { %"struct.std::_Optional_base" }
%"struct.std::_Optional_base" = type { %"struct.std::_Optional_payload" }
%"struct.std::_Optional_payload" = type { %"struct.std::_Optional_payload_base" }
%"struct.std::_Optional_payload_base" = type { %"union.std::_Optional_payload_base<llvm::Align>::_Storage", i8 }
%"union.std::_Optional_payload_base<llvm::Align>::_Storage" = type { %"struct.std::_Optional_payload_base<llvm::Align>::_Empty_byte" }
%"struct.std::_Optional_payload_base<llvm::Align>::_Empty_byte" = type { i8 }
%"class.llvm::SmallVector" = type { %"class.llvm::SmallVectorImpl", %"struct.llvm::SmallVectorStorage" }
%"class.llvm::SmallVectorImpl" = type { %"class.llvm::SmallVectorTemplateBase" }
%"class.llvm::SmallVectorTemplateBase" = type { %"class.llvm::SmallVectorTemplateCommon" }
%"class.llvm::SmallVectorTemplateCommon" = type { %"class.llvm::SmallVectorBase" }
%"class.llvm::SmallVectorBase" = type { ptr, i64, i64 }
%"struct.llvm::SmallVectorStorage" = type { [8 x i8] }
%"class.llvm::SmallVector.53" = type { %"class.llvm::SmallVectorImpl.54", %"struct.llvm::SmallVectorStorage.58" }
%"class.llvm::SmallVectorImpl.54" = type { %"class.llvm::SmallVectorTemplateBase.55" }
%"class.llvm::SmallVectorTemplateBase.55" = type { %"class.llvm::SmallVectorTemplateCommon.56" }
%"class.llvm::SmallVectorTemplateCommon.56" = type { %"class.llvm::SmallVectorBase.57" }
%"class.llvm::SmallVectorBase.57" = type { ptr, i32, i32 }
%"struct.llvm::SmallVectorStorage.58" = type { [48 x i8] }
%"class.llvm::SmallVector.59" = type { %"class.llvm::SmallVectorImpl.54", %"struct.llvm::SmallVectorStorage.60" }
%"struct.llvm::SmallVectorStorage.60" = type { [32 x i8] }
%"class.llvm::SmallVector.61" = type { %"class.llvm::SmallVectorImpl.54", %"struct.llvm::SmallVectorStorage.62" }
%"struct.llvm::SmallVectorStorage.62" = type { [80 x i8] }
%"class.llvm::SmallVector.63" = type { %"class.llvm::SmallVectorImpl.64", %"struct.llvm::SmallVectorStorage.67" }
%"class.llvm::SmallVectorImpl.64" = type { %"class.llvm::SmallVectorTemplateBase.65" }
%"class.llvm::SmallVectorTemplateBase.65" = type { %"class.llvm::SmallVectorTemplateCommon.66" }
%"class.llvm::SmallVectorTemplateCommon.66" = type { %"class.llvm::SmallVectorBase.57" }
%"struct.llvm::SmallVectorStorage.67" = type { [128 x i8] }
%"struct.llvm::Align" = type { i8 }
%"class.llvm::SmallVector.68" = type { %"class.llvm::SmallVectorImpl.69", %"struct.llvm::SmallVectorStorage.72" }
%"class.llvm::SmallVectorImpl.69" = type { %"class.llvm::SmallVectorTemplateBase.70" }
%"class.llvm::SmallVectorTemplateBase.70" = type { %"class.llvm::SmallVectorTemplateCommon.71" }
%"class.llvm::SmallVectorTemplateCommon.71" = type { %"class.llvm::SmallVectorBase.57" }
%"struct.llvm::SmallVectorStorage.72" = type { [32 x i8] }
%"class.llvm::StringMap.73" = type { %"class.llvm::StringMapImpl" }
%"class.llvm::DenseMap" = type <{ ptr, i32, i32, i32, [4 x i8] }>

; Function Attrs: mustprogress nounwind uwtable
define linkonce_odr hidden void @_ZN4llvm8ArrayRefIPNS_4TypeEEC2ERKS2_(ptr noundef nonnull align 8 dereferenceable(16) %0, ptr noundef nonnull align 8 dereferenceable(8) %1) unnamed_addr #0 comdat align 2 {
  %3 = alloca ptr, align 8
  %4 = alloca ptr, align 8
  store ptr %0, ptr %3, align 8
  store ptr %1, ptr %4, align 8
  %5 = load ptr, ptr %3, align 8
  %6 = getelementptr inbounds nuw %"class.llvm::ArrayRef", ptr %5, i32 0, i32 0
  %7 = load ptr, ptr %4, align 8
  store ptr %7, ptr %6, align 8
  %8 = getelementptr inbounds nuw %"class.llvm::ArrayRef", ptr %5, i32 0, i32 1
  store i64 1, ptr %8, align 8
  ret void
}

; Function Attrs: mustprogress nounwind uwtable
define linkonce_odr hidden noundef nonnull align 8 dereferenceable(8) ptr @_ZNK4llvm6Module10getContextEv(ptr noundef nonnull align 8 dereferenceable(857) %0) #0 comdat align 2 {
  %2 = alloca ptr, align 8
  store ptr %0, ptr %2, align 8
  %3 = load ptr, ptr %2, align 8
  %4 = getelementptr inbounds nuw %"class.llvm::Module", ptr %3, i32 0, i32 0
  %5 = load ptr, ptr %4, align 8
  ret ptr %5
}

; Function Attrs: mustprogress nounwind uwtable
define dso_local void @_ZN4llvm4coro11LowererBaseC2ERNS_6ModuleE(ptr noundef nonnull align 8 dereferenceable(40) %0, ptr noundef nonnull align 8 dereferenceable(857) %1) unnamed_addr #0 align 2 {
  %3 = alloca ptr, align 8
  %4 = alloca ptr, align 8
  %5 = alloca %"class.llvm::ArrayRef", align 8
  %6 = alloca ptr, align 8
  store ptr %0, ptr %3, align 8
  store ptr %1, ptr %4, align 8
  %7 = load ptr, ptr %3, align 8
  %8 = getelementptr inbounds nuw %"struct.llvm::coro::LowererBase", ptr %7, i32 0, i32 0
  %9 = load ptr, ptr %4, align 8
  store ptr %9, ptr %8, align 8
  %10 = getelementptr inbounds nuw %"struct.llvm::coro::LowererBase", ptr %7, i32 0, i32 1
  %11 = load ptr, ptr %4, align 8
  %12 = call noundef nonnull align 8 dereferenceable(8) ptr @_ZNK4llvm6Module10getContextEv(ptr noundef nonnull align 8 dereferenceable(857) %11)
  store ptr %12, ptr %10, align 8
  %13 = getelementptr inbounds nuw %"struct.llvm::coro::LowererBase", ptr %7, i32 0, i32 2
  %14 = getelementptr inbounds nuw %"struct.llvm::coro::LowererBase", ptr %7, i32 0, i32 1
  %15 = load ptr, ptr %14, align 8
  %16 = call noundef ptr @_ZN4llvm11PointerType3getERNS_11LLVMContextEj(ptr noundef nonnull align 8 dereferenceable(8) %15, i32 noundef 0)
  store ptr %16, ptr %13, align 8
  %17 = getelementptr inbounds nuw %"struct.llvm::coro::LowererBase", ptr %7, i32 0, i32 3
  %18 = getelementptr inbounds nuw %"struct.llvm::coro::LowererBase", ptr %7, i32 0, i32 1
  %19 = load ptr, ptr %18, align 8
  %20 = call noundef ptr @_ZN4llvm4Type9getVoidTyERNS_11LLVMContextE(ptr noundef nonnull align 8 dereferenceable(8) %19)
  %21 = getelementptr inbounds nuw %"struct.llvm::coro::LowererBase", ptr %7, i32 0, i32 2
  %22 = load ptr, ptr %21, align 8
  store ptr %22, ptr %6, align 8
  call void @_ZN4llvm8ArrayRefIPNS_4TypeEEC2ERKS2_(ptr noundef nonnull align 8 dereferenceable(16) %5, ptr noundef nonnull align 8 dereferenceable(8) %6)
  %23 = getelementptr inbounds nuw { ptr, i64 }, ptr %5, i32 0, i32 0
  %24 = load ptr, ptr %23, align 8
  %25 = getelementptr inbounds nuw { ptr, i64 }, ptr %5, i32 0, i32 1
  %26 = load i64, ptr %25, align 8
  %27 = call noundef ptr @_ZN4llvm12FunctionType3getEPNS_4TypeENS_8ArrayRefIS2_EEb(ptr noundef %20, ptr %24, i64 %26, i1 noundef zeroext false)
  store ptr %27, ptr %17, align 8
  %28 = getelementptr inbounds nuw %"struct.llvm::coro::LowererBase", ptr %7, i32 0, i32 4
  %29 = getelementptr inbounds nuw %"struct.llvm::coro::LowererBase", ptr %7, i32 0, i32 2
  %30 = load ptr, ptr %29, align 8
  %31 = call noundef ptr @_ZN4llvm19ConstantPointerNull3getEPNS_11PointerTypeE(ptr noundef %30)
  store ptr %31, ptr %28, align 8
  ret void
}