; Function Attrs: mustprogress nounwind uwtable
define dso_local void @_ZN4llvm4coro11LowererBaseC2ERNS_6ModuleE(ptr nocapture noundef nonnull align 8 dereferenceable(40) %0, ptr noundef nonnull align 8 dereferenceable(857) %1) unnamed_addr #0 align 2 {
  %3 = alloca ptr, align 8
  store ptr %1, ptr %0, align 8
  %4 = getelementptr inbounds nuw i8, ptr %0, i64 8
  %5 = load ptr, ptr %1, align 8
  store ptr %5, ptr %4, align 8
  %6 = getelementptr inbounds nuw i8, ptr %0, i64 16
  %7 = tail call noundef ptr @_ZN4llvm11PointerType3getERNS_11LLVMContextEj(ptr noundef nonnull align 8 dereferenceable(8) %5, i32 noundef 0) #14
  store ptr %7, ptr %6, align 8
  %8 = getelementptr inbounds nuw i8, ptr %0, i64 24
  %9 = load ptr, ptr %4, align 8
  %10 = tail call noundef ptr @_ZN4llvm4Type9getVoidTyERNS_11LLVMContextE(ptr noundef nonnull align 8 dereferenceable(8) %9) #14
  %11 = load ptr, ptr %6, align 8
  store ptr %11, ptr %3, align 8
  %12 = call noundef ptr @_ZN4llvm12FunctionType3getEPNS_4TypeENS_8ArrayRefIS2_EEb(ptr noundef %10, ptr nonnull %3, i64 1, i1 noundef zeroext false) #14
  store ptr %12, ptr %8, align 8
  %13 = getelementptr inbounds nuw i8, ptr %0, i64 32
  %14 = load ptr, ptr %6, align 8
  %15 = call noundef ptr @_ZN4llvm19ConstantPointerNull3getEPNS_11PointerTypeE(ptr noundef %14) #14
  store ptr %15, ptr %13, align 8
  ret void
}